target datalayout = "e-m:e-p270:32:32-p271:32:32-p272:64:64-i64:64-i128:128-f80:128-n8:16:32:64-S128"
target triple = "x86_64-pc-linux-gnu"

; Function Attrs: nounwind uwtable
define dso_local i32 @jvp_utf8_decode_length(i8 noundef signext %0) #0 {
  %2 = alloca i32, align 4
  %3 = alloca i8, align 1
  store i8 %0, ptr %3, align 1, !tbaa !13
  %4 = load i8, ptr %3, align 1, !tbaa !13
  %5 = sext i8 %4 to i32
  %6 = and i32 %5, 128
  %7 = icmp eq i32 %6, 0
  br i1 %7, label %8, label %9

8:                                                ; preds = %1
  store i32 1, ptr %2, align 4
  br label %22

9:                                                ; preds = %1
  %10 = load i8, ptr %3, align 1, !tbaa !13
  %11 = sext i8 %10 to i32
  %12 = and i32 %11, 224
  %13 = icmp eq i32 %12, 192
  br i1 %13, label %14, label %15

14:                                               ; preds = %9
  store i32 2, ptr %2, align 4
  br label %22

15:                                               ; preds = %9
  %16 = load i8, ptr %3, align 1, !tbaa !13
  %17 = sext i8 %16 to i32
  %18 = and i32 %17, 240
  %19 = icmp eq i32 %18, 224
  br i1 %19, label %20, label %21

20:                                               ; preds = %15
  store i32 3, ptr %2, align 4
  br label %22

21:                                               ; preds = %15
  store i32 4, ptr %2, align 4
  br label %22

22:                                               ; preds = %21, %20, %14, %8
  %23 = load i32, ptr %2, align 4
  ret i32 %23
}