; Function Attrs: mustprogress nofree norecurse nosync nounwind willreturn memory(none) uwtable
define dso_local range(i32 1, 5) i32 @jvp_utf8_decode_length(i8 noundef signext %0) local_unnamed_addr #2 {
  %2 = zext i8 %0 to i32
  %3 = icmp sgt i8 %0, -1
  br i1 %3, label %10, label %4

4:                                                ; preds = %1
  %5 = and i32 %2, 224
  %6 = icmp eq i32 %5, 192
  br i1 %6, label %10, label %7

7:                                                ; preds = %4
  %8 = and i32 %2, 240
  %9 = icmp eq i32 %8, 224
  %. = select i1 %9, i32 3, i32 4
  br label %10

10:                                               ; preds = %7, %4, %1
  %.0 = phi i32 [ 1, %1 ], [ 2, %4 ], [ %., %7 ]
  ret i32 %.0
}